; Function Attrs: mustprogress uwtable
define void @_ZN5Ipopt16AlgorithmBuilder18GetSymLinearSolverERKNS_10JournalistERKNS_11OptionsListERKNSt7__cxx1112basic_stringIcSt11char_traitsIcESaIcEEE(ptr dead_on_unwind noalias nocapture writable writeonly sret(%"class.Ipopt::SmartPtr.19") align 8 %0, ptr noundef nonnull align 8 dereferenceable(192) %1, ptr noundef nonnull align 8 dereferenceable(40) %2, ptr noundef nonnull align 8 dereferenceable(112) %3, ptr noundef nonnull align 8 dereferenceable(32) %4) local_unnamed_addr #4 align 2 personality ptr @__gxx_personality_v0 {
  %6 = alloca %"class.Ipopt::SmartPtr.19", align 8
  %7 = getelementptr inbounds i8, ptr %1, i64 80
  %8 = load ptr, ptr %7, align 8
  %9 = icmp eq ptr %8, null
  br i1 %9, label %10, label %_ZN5Ipopt8SmartPtrINS_15SymLinearSolverEED2Ev.exit.thread

_ZN5Ipopt8SmartPtrINS_15SymLinearSolverEED2Ev.exit.thread: ; preds = %5
  store ptr null, ptr %0, align 8
  br label %45

10:                                               ; preds = %5
  %11 = load ptr, ptr %1, align 8
  %12 = getelementptr inbounds i8, ptr %11, i64 16
  %13 = load ptr, ptr %12, align 8
  call void %13(ptr dead_on_unwind nonnull writable sret(%"class.Ipopt::SmartPtr.19") align 8 %6, ptr noundef nonnull align 8 dereferenceable(192) %1, ptr noundef nonnull align 8 dereferenceable(40) %2, ptr noundef nonnull align 8 dereferenceable(112) %3, ptr noundef nonnull align 8 dereferenceable(32) %4)
  %14 = load ptr, ptr %6, align 8
  %.not.i.i.i = icmp eq ptr %14, null
  br i1 %.not.i.i.i, label %19, label %15

15:                                               ; preds = %10
  %16 = getelementptr inbounds i8, ptr %14, i64 8
  %17 = load i32, ptr %16, align 8
  %18 = add nsw i32 %17, 1
  store i32 %18, ptr %16, align 8
  br label %19

19:                                               ; preds = %15, %10
  %20 = load ptr, ptr %7, align 8
  %.not.i.i.i.i = icmp eq ptr %20, null
  br i1 %.not.i.i.i.i, label %33, label %21

21:                                               ; preds = %19
  %22 = getelementptr inbounds i8, ptr %20, i64 8
  %23 = load i32, ptr %22, align 8
  %24 = add nsw i32 %23, -1
  store i32 %24, ptr %22, align 8
  %25 = load ptr, ptr %7, align 8
  %26 = getelementptr inbounds i8, ptr %25, i64 8
  %27 = load i32, ptr %26, align 8
  %28 = icmp eq i32 %27, 0
  br i1 %28, label %29, label %33

29:                                               ; preds = %21
  %30 = load ptr, ptr %25, align 8
  %31 = getelementptr inbounds i8, ptr %30, i64 8
  %32 = load ptr, ptr %31, align 8
  call void %32(ptr noundef nonnull align 8 dereferenceable(49) %25) #15
  %.pre = load ptr, ptr %6, align 8
  br label %33

33:                                               ; preds = %29, %21, %19
  %34 = phi ptr [ %.pre, %29 ], [ %14, %21 ], [ %14, %19 ]
  store ptr %14, ptr %7, align 8
  %.not.i.i = icmp eq ptr %34, null
  br i1 %.not.i.i, label %_ZN5Ipopt8SmartPtrINS_15SymLinearSolverEED2Ev.exit, label %35

35:                                               ; preds = %33
  %36 = getelementptr inbounds i8, ptr %34, i64 8
  %37 = load i32, ptr %36, align 8
  %38 = add nsw i32 %37, -1
  store i32 %38, ptr %36, align 8
  %39 = icmp eq i32 %38, 0
  br i1 %39, label %40, label %_ZN5Ipopt8SmartPtrINS_15SymLinearSolverEED2Ev.exitthread-pre-split

40:                                               ; preds = %35
  %41 = load ptr, ptr %34, align 8
  %42 = getelementptr inbounds i8, ptr %41, i64 8
  %43 = load ptr, ptr %42, align 8
  call void %43(ptr noundef nonnull align 8 dereferenceable(49) %34) #15
  br label %_ZN5Ipopt8SmartPtrINS_15SymLinearSolverEED2Ev.exitthread-pre-split

_ZN5Ipopt8SmartPtrINS_15SymLinearSolverEED2Ev.exitthread-pre-split: ; preds = %35, %40
  %.pr = load ptr, ptr %7, align 8
  br label %_ZN5Ipopt8SmartPtrINS_15SymLinearSolverEED2Ev.exit

_ZN5Ipopt8SmartPtrINS_15SymLinearSolverEED2Ev.exit: ; preds = %_ZN5Ipopt8SmartPtrINS_15SymLinearSolverEED2Ev.exitthread-pre-split, %33
  %44 = phi ptr [ %.pr, %_ZN5Ipopt8SmartPtrINS_15SymLinearSolverEED2Ev.exitthread-pre-split ], [ %14, %33 ]
  store ptr null, ptr %0, align 8
  %.not.i.i.i7 = icmp eq ptr %44, null
  br i1 %.not.i.i.i7, label %_ZN5Ipopt8SmartPtrINS_15SymLinearSolverEEC2ERKS2_.exit, label %45

45:                                               ; preds = %_ZN5Ipopt8SmartPtrINS_15SymLinearSolverEED2Ev.exit.thread, %_ZN5Ipopt8SmartPtrINS_15SymLinearSolverEED2Ev.exit
  %46 = phi ptr [ %8, %_ZN5Ipopt8SmartPtrINS_15SymLinearSolverEED2Ev.exit.thread ], [ %44, %_ZN5Ipopt8SmartPtrINS_15SymLinearSolverEED2Ev.exit ]
  %47 = getelementptr inbounds i8, ptr %46, i64 8
  %48 = load i32, ptr %47, align 8
  %49 = add nsw i32 %48, 1
  store i32 %49, ptr %47, align 8
  br label %_ZN5Ipopt8SmartPtrINS_15SymLinearSolverEEC2ERKS2_.exit

_ZN5Ipopt8SmartPtrINS_15SymLinearSolverEEC2ERKS2_.exit: ; preds = %45, %_ZN5Ipopt8SmartPtrINS_15SymLinearSolverEED2Ev.exit
  %50 = phi ptr [ null, %_ZN5Ipopt8SmartPtrINS_15SymLinearSolverEED2Ev.exit ], [ %46, %45 ]
  store ptr %50, ptr %0, align 8
  ret void
}